; Function Attrs: mustprogress nounwind uwtable
define internal void @_ZN6icu_75L15deleteMatchInfoEPv(ptr noundef %obj) #7 {
entry:
  %isnull = icmp eq ptr %obj, null
  br i1 %isnull, label %delete.end, label %delete.notnull

delete.notnull:                                   ; preds = %entry
  %id.i = getelementptr inbounds i8, ptr %obj, i64 8
  tail call void @_ZN6icu_7513UnicodeStringD1Ev(ptr noundef nonnull align 8 dereferenceable(64) %id.i) #17
  tail call void @_ZN6icu_757UMemorydlEPv(ptr noundef nonnull %obj) #17
  br label %delete.end

delete.end:                                       ; preds = %delete.notnull, %entry
  ret void
}